target datalayout = "e-m:e-p270:32:32-p271:32:32-p272:64:64-i64:64-i128:128-f80:128-n8:16:32:64-S128"
target triple = "x86_64-pc-linux-gnu"

@.str.196 = private unnamed_addr constant [10 x i8] c"Magnitude\00", align 1
@.str.197 = private unnamed_addr constant [5 x i8] c"Unit\00", align 1
@.str.198 = private unnamed_addr constant [4 x i8] c"Dot\00", align 1
@.str.199 = private unnamed_addr constant [35 x i8] c"%s is not a valid member of vector\00", align 1

; Function Attrs: mustprogress uwtable
define internal noundef i32 @_ZL16lua_vector_indexP9lua_State(ptr noundef %0) #4 {
  %2 = alloca i32, align 4
  %3 = alloca ptr, align 8
  %4 = alloca ptr, align 8
  %5 = alloca ptr, align 8
  %6 = alloca float, align 4
  store ptr %0, ptr %3, align 8
  %7 = load ptr, ptr %3, align 8
  %8 = call noundef ptr @_Z16luaL_checkvectorP9lua_Statei(ptr noundef %7, i32 noundef 1)
  store ptr %8, ptr %4, align 8
  %9 = load ptr, ptr %3, align 8
  %10 = call noundef ptr @_Z17luaL_checklstringP9lua_StateiPm(ptr noundef %9, i32 noundef 2, ptr noundef null)
  store ptr %10, ptr %5, align 8
  %11 = load ptr, ptr %5, align 8
  %12 = call i32 @strcmp(ptr noundef %11, ptr noundef @.str.196) #18
  %13 = icmp eq i32 %12, 0
  br i1 %13, label %14, label %39

14:                                               ; preds = %1
  %15 = load ptr, ptr %3, align 8
  %16 = load ptr, ptr %4, align 8
  %17 = getelementptr inbounds float, ptr %16, i64 0
  %18 = load float, ptr %17, align 4
  %19 = load ptr, ptr %4, align 8
  %20 = getelementptr inbounds float, ptr %19, i64 0
  %21 = load float, ptr %20, align 4
  %22 = load ptr, ptr %4, align 8
  %23 = getelementptr inbounds float, ptr %22, i64 1
  %24 = load float, ptr %23, align 4
  %25 = load ptr, ptr %4, align 8
  %26 = getelementptr inbounds float, ptr %25, i64 1
  %27 = load float, ptr %26, align 4
  %28 = fmul float %24, %27
  %29 = call float @llvm.fmuladd.f32(float %18, float %21, float %28)
  %30 = load ptr, ptr %4, align 8
  %31 = getelementptr inbounds float, ptr %30, i64 2
  %32 = load float, ptr %31, align 4
  %33 = load ptr, ptr %4, align 8
  %34 = getelementptr inbounds float, ptr %33, i64 2
  %35 = load float, ptr %34, align 4
  %36 = call float @llvm.fmuladd.f32(float %32, float %35, float %29)
  %37 = call float @sqrtf(float noundef %36) #16
  %38 = fpext float %37 to double
  call void @_Z14lua_pushnumberP9lua_Stated(ptr noundef %15, double noundef %38)
  store i32 1, ptr %2, align 4
  br label %92

39:                                               ; preds = %1
  %40 = load ptr, ptr %5, align 8
  %41 = call i32 @strcmp(ptr noundef %40, ptr noundef @.str.197) #18
  %42 = icmp eq i32 %41, 0
  br i1 %42, label %43, label %83

43:                                               ; preds = %39
  %44 = load ptr, ptr %4, align 8
  %45 = getelementptr inbounds float, ptr %44, i64 0
  %46 = load float, ptr %45, align 4
  %47 = load ptr, ptr %4, align 8
  %48 = getelementptr inbounds float, ptr %47, i64 0
  %49 = load float, ptr %48, align 4
  %50 = load ptr, ptr %4, align 8
  %51 = getelementptr inbounds float, ptr %50, i64 1
  %52 = load float, ptr %51, align 4
  %53 = load ptr, ptr %4, align 8
  %54 = getelementptr inbounds float, ptr %53, i64 1
  %55 = load float, ptr %54, align 4
  %56 = fmul float %52, %55
  %57 = call float @llvm.fmuladd.f32(float %46, float %49, float %56)
  %58 = load ptr, ptr %4, align 8
  %59 = getelementptr inbounds float, ptr %58, i64 2
  %60 = load float, ptr %59, align 4
  %61 = load ptr, ptr %4, align 8
  %62 = getelementptr inbounds float, ptr %61, i64 2
  %63 = load float, ptr %62, align 4
  %64 = call float @llvm.fmuladd.f32(float %60, float %63, float %57)
  %65 = call float @sqrtf(float noundef %64) #16
  %66 = fdiv float 1.000000e+00, %65
  store float %66, ptr %6, align 4
  %67 = load ptr, ptr %3, align 8
  %68 = load ptr, ptr %4, align 8
  %69 = getelementptr inbounds float, ptr %68, i64 0
  %70 = load float, ptr %69, align 4
  %71 = load float, ptr %6, align 4
  %72 = fmul float %70, %71
  %73 = load ptr, ptr %4, align 8
  %74 = getelementptr inbounds float, ptr %73, i64 1
  %75 = load float, ptr %74, align 4
  %76 = load float, ptr %6, align 4
  %77 = fmul float %75, %76
  %78 = load ptr, ptr %4, align 8
  %79 = getelementptr inbounds float, ptr %78, i64 2
  %80 = load float, ptr %79, align 4
  %81 = load float, ptr %6, align 4
  %82 = fmul float %80, %81
  call void @_Z14lua_pushvectorP9lua_Statefff(ptr noundef %67, float noundef %72, float noundef %77, float noundef %82)
  store i32 1, ptr %2, align 4
  br label %92

83:                                               ; preds = %39
  %84 = load ptr, ptr %5, align 8
  %85 = call i32 @strcmp(ptr noundef %84, ptr noundef @.str.198) #18
  %86 = icmp eq i32 %85, 0
  br i1 %86, label %87, label %89

87:                                               ; preds = %83
  %88 = load ptr, ptr %3, align 8
  call void @_Z17lua_pushcclosurekP9lua_StatePFiS0_EPKciPFiS0_iE(ptr noundef %88, ptr noundef @_ZL14lua_vector_dotP9lua_State, ptr noundef @.str.198, i32 noundef 0, ptr noundef null)
  store i32 1, ptr %2, align 4
  br label %92

89:                                               ; preds = %83
  %90 = load ptr, ptr %3, align 8
  %91 = load ptr, ptr %5, align 8
  call void (ptr, ptr, ...) @_Z11luaL_errorLP9lua_StatePKcz(ptr noundef %90, ptr noundef @.str.199, ptr noundef %91) #19
  unreachable

92:                                               ; preds = %87, %43, %14
  %93 = load i32, ptr %2, align 4
  ret i32 %93
}