; Function Attrs: mustprogress uwtable
define internal noundef i32 @_ZL16lua_vector_indexP9lua_State(ptr noundef %0) #4 {
  %2 = tail call noundef ptr @_Z16luaL_checkvectorP9lua_Statei(ptr noundef %0, i32 noundef 1)
  %3 = tail call noundef ptr @_Z17luaL_checklstringP9lua_StateiPm(ptr noundef %0, i32 noundef 2, ptr noundef null)
  %4 = tail call i32 @strcmp(ptr noundef nonnull dereferenceable(1) %3, ptr noundef nonnull dereferenceable(10) @.str.196) #33
  %5 = icmp eq i32 %4, 0
  br i1 %5, label %6, label %16

6:                                                ; preds = %1
  %7 = load float, ptr %2, align 4
  %8 = getelementptr inbounds i8, ptr %2, i64 4
  %9 = load float, ptr %8, align 4
  %10 = fmul float %9, %9
  %11 = tail call float @llvm.fmuladd.f32(float %7, float %7, float %10)
  %12 = getelementptr inbounds i8, ptr %2, i64 8
  %13 = load float, ptr %12, align 4
  %14 = tail call float @llvm.fmuladd.f32(float %13, float %13, float %11)
  %sqrt = tail call float @llvm.sqrt.f32(float %14)
  %15 = fpext float %sqrt to double
  tail call void @_Z14lua_pushnumberP9lua_Stated(ptr noundef %0, double noundef %15)
  br label %37

16:                                               ; preds = %1
  %17 = tail call i32 @strcmp(ptr noundef nonnull dereferenceable(1) %3, ptr noundef nonnull dereferenceable(5) @.str.197) #33
  %18 = icmp eq i32 %17, 0
  br i1 %18, label %19, label %32

19:                                               ; preds = %16
  %20 = load float, ptr %2, align 4
  %21 = getelementptr inbounds i8, ptr %2, i64 4
  %22 = load float, ptr %21, align 4
  %23 = fmul float %22, %22
  %24 = tail call float @llvm.fmuladd.f32(float %20, float %20, float %23)
  %25 = getelementptr inbounds i8, ptr %2, i64 8
  %26 = load float, ptr %25, align 4
  %27 = tail call float @llvm.fmuladd.f32(float %26, float %26, float %24)
  %sqrt28 = tail call float @llvm.sqrt.f32(float %27)
  %28 = fdiv float 1.000000e+00, %sqrt28
  %29 = fmul float %20, %28
  %30 = fmul float %22, %28
  %31 = fmul float %26, %28
  tail call void @_Z14lua_pushvectorP9lua_Statefff(ptr noundef %0, float noundef %29, float noundef %30, float noundef %31)
  br label %37

32:                                               ; preds = %16
  %33 = tail call i32 @strcmp(ptr noundef nonnull dereferenceable(1) %3, ptr noundef nonnull dereferenceable(4) @.str.198) #33
  %34 = icmp eq i32 %33, 0
  br i1 %34, label %35, label %36

35:                                               ; preds = %32
  tail call void @_Z17lua_pushcclosurekP9lua_StatePFiS0_EPKciPFiS0_iE(ptr noundef %0, ptr noundef nonnull @_ZL14lua_vector_dotP9lua_State, ptr noundef nonnull @.str.198, i32 noundef 0, ptr noundef null)
  br label %37

36:                                               ; preds = %32
  tail call void (ptr, ptr, ...) @_Z11luaL_errorLP9lua_StatePKcz(ptr noundef %0, ptr noundef nonnull @.str.199, ptr noundef %3) #34
  unreachable

37:                                               ; preds = %35, %19, %6
  ret i32 1
}